target datalayout = "e-m:e-p270:32:32-p271:32:32-p272:64:64-i64:64-i128:128-f80:128-n8:16:32:64-S128"
target triple = "x86_64-pc-linux-gnu"

@H5AC_init_g = global i8 0, align 1
@H5_libterm_g = external global i8, align 1

; Function Attrs: nounwind uwtable
define internal i32 @H5AC__check_if_write_permitted(ptr noundef %0, ptr noundef %1) #0 {
  %3 = alloca ptr, align 8
  %4 = alloca ptr, align 8
  %5 = alloca i8, align 1
  store ptr %0, ptr %3, align 8, !tbaa !13
  store ptr %1, ptr %4, align 8, !tbaa !75
  call void @llvm.lifetime.start.p0(i64 1, ptr %5) #6
  store i8 1, ptr %5, align 1, !tbaa !7
  %6 = load i8, ptr @H5AC_init_g, align 1, !tbaa !7, !range !9, !noundef !10
  %7 = trunc i8 %6 to i1
  br i1 %7, label %12, label %8

8:                                                ; preds = %2
  %9 = load i8, ptr @H5_libterm_g, align 1, !tbaa !7, !range !9, !noundef !10
  %10 = trunc i8 %9 to i1
  %11 = xor i1 %10, true
  br label %12

12:                                               ; preds = %8, %2
  %13 = phi i1 [ true, %2 ], [ %11, %8 ]
  %14 = xor i1 %13, true
  %15 = xor i1 %14, true
  %16 = zext i1 %15 to i32
  %17 = sext i32 %16 to i64
  %18 = call i64 @llvm.expect.i64(i64 %17, i64 1)
  %19 = icmp ne i64 %18, 0
  br i1 %19, label %20, label %25

20:                                               ; preds = %12
  %21 = load i8, ptr %5, align 1, !tbaa !7, !range !9, !noundef !10
  %22 = trunc i8 %21 to i1
  %23 = load ptr, ptr %4, align 8, !tbaa !75
  %24 = zext i1 %22 to i8
  store i8 %24, ptr %23, align 1, !tbaa !7
  br label %25

25:                                               ; preds = %20, %12
  call void @llvm.lifetime.end.p0(i64 1, ptr %5) #6
  ret i32 0
}